; Function Attrs: nounwind uwtable
define dso_local range(i64 -2147483648, 2147483648) i64 @tsquery_cmp(ptr noundef readonly captures(none) %0) local_unnamed_addr #2 {
  %2 = getelementptr inbounds nuw i8, ptr %0, i64 32
  %3 = load i64, ptr %2, align 8
  %4 = inttoptr i64 %3 to ptr
  %5 = tail call ptr @pg_detoast_datum_copy(ptr noundef %4) #9
  %6 = getelementptr inbounds nuw i8, ptr %0, i64 48
  %7 = load i64, ptr %6, align 8
  %8 = inttoptr i64 %7 to ptr
  %9 = tail call ptr @pg_detoast_datum_copy(ptr noundef %8) #9
  %10 = getelementptr inbounds nuw i8, ptr %5, i64 4
  %11 = load i32, ptr %10, align 4
  %12 = getelementptr inbounds nuw i8, ptr %9, i64 4
  %13 = load i32, ptr %12, align 4
  %.not.i = icmp eq i32 %11, %13
  br i1 %.not.i, label %17, label %14

14:                                               ; preds = %1
  %15 = icmp slt i32 %11, %13
  %16 = select i1 %15, i32 -1, i32 1
  br label %CompareTSQ.exit

17:                                               ; preds = %1
  %18 = load i32, ptr %5, align 4
  %19 = lshr i32 %18, 2
  %20 = load i32, ptr %9, align 4
  %21 = lshr i32 %20, 2
  %.not24.i = icmp eq i32 %19, %21
  br i1 %.not24.i, label %25, label %22

22:                                               ; preds = %17
  %23 = icmp samesign ult i32 %19, %21
  %24 = select i1 %23, i32 -1, i32 1
  br label %CompareTSQ.exit

25:                                               ; preds = %17
  %.not25.i = icmp eq i32 %11, 0
  br i1 %.not25.i, label %CompareTSQ.exit, label %26

26:                                               ; preds = %25
  %27 = getelementptr inbounds nuw i8, ptr %5, i64 8
  %28 = sext i32 %11 to i64
  %29 = mul nsw i64 %28, 12
  %30 = getelementptr inbounds nuw i8, ptr %27, i64 %29
  %31 = tail call ptr @QT2QTN(ptr noundef nonnull %27, ptr noundef nonnull %30) #9
  %32 = getelementptr inbounds nuw i8, ptr %9, i64 8
  %33 = load i32, ptr %12, align 4
  %34 = sext i32 %33 to i64
  %35 = mul nsw i64 %34, 12
  %36 = getelementptr inbounds nuw i8, ptr %32, i64 %35
  %37 = tail call ptr @QT2QTN(ptr noundef nonnull %32, ptr noundef nonnull %36) #9
  %38 = tail call i32 @QTNodeCompare(ptr noundef %31, ptr noundef %37) #9
  tail call void @QTNFree(ptr noundef %31) #9
  tail call void @QTNFree(ptr noundef %37) #9
  br label %CompareTSQ.exit

CompareTSQ.exit:                                  ; preds = %14, %22, %25, %26
  %.0.i = phi i32 [ %16, %14 ], [ %24, %22 ], [ %38, %26 ], [ 0, %25 ]
  %39 = load i64, ptr %2, align 8
  %40 = inttoptr i64 %39 to ptr
  %.not = icmp eq ptr %5, %40
  br i1 %.not, label %42, label %41

41:                                               ; preds = %CompareTSQ.exit
  tail call void @pfree(ptr noundef nonnull %5) #9
  br label %42

42:                                               ; preds = %CompareTSQ.exit, %41
  %43 = load i64, ptr %6, align 8
  %44 = inttoptr i64 %43 to ptr
  %.not11 = icmp eq ptr %9, %44
  br i1 %.not11, label %46, label %45

45:                                               ; preds = %42
  tail call void @pfree(ptr noundef nonnull %9) #9
  br label %46

46:                                               ; preds = %45, %42
  %47 = sext i32 %.0.i to i64
  ret i64 %47
}